; Function Attrs: mustprogress nofree norecurse nosync nounwind willreturn memory(argmem: read) uwtable
define internal range(i32 -1, 3) i32 @pg_sjis_dsplen(ptr noundef readonly captures(none) %0) #0 {
  %2 = load i8, ptr %0, align 1
  %3 = add i8 %2, 95
  %or.cond = icmp ult i8 %3, 63
  br i1 %or.cond, label %9, label %4

4:                                                ; preds = %1
  %.not = icmp sgt i8 %2, -1
  br i1 %.not, label %5, label %9

5:                                                ; preds = %4
  %6 = icmp eq i8 %2, 0
  %7 = icmp samesign ult i8 %2, 32
  %8 = icmp eq i8 %2, 127
  %or.cond.i = or i1 %7, %8
  %spec.select.i = select i1 %or.cond.i, i32 -1, i32 1
  %.0.i = select i1 %6, i32 0, i32 %spec.select.i
  br label %9

9:                                                ; preds = %4, %1, %5
  %.0 = phi i32 [ %.0.i, %5 ], [ 1, %1 ], [ 2, %4 ]
  ret i32 %.0
}